target datalayout = "e-m:e-p270:32:32-p271:32:32-p272:64:64-i64:64-i128:128-f80:128-n8:16:32:64-S128"
target triple = "x86_64-pc-linux-gnu"

%"class.__gnu_cxx::__normal_iterator.344" = type { ptr }
%"struct.__gnu_cxx::__ops::_Iter_comp_iter" = type { i8 }
%"struct.__gnu_cxx::__ops::_Iter_comp_val" = type { i8 }

; Function Attrs: mustprogress uwtable
define internal noundef zeroext i1 @_ZN9__gnu_cxx5__ops14_Iter_comp_valIN12_GLOBAL__N_127RateRepresentationPredicateEEclINS_17__normal_iteratorIPPKN6Assimp3IFC10Schema_2x317IfcRepresentationESt6vectorISC_SaISC_EEEESC_EEbT_RT0_(ptr noundef nonnull align 1 dereferenceable(1) %0, ptr %1, ptr noundef nonnull align 8 dereferenceable(8) %2) #2 align 2 {
  %4 = alloca %"class.__gnu_cxx::__normal_iterator.344", align 8
  %5 = alloca ptr, align 8
  %6 = alloca ptr, align 8
  %7 = getelementptr inbounds nuw %"class.__gnu_cxx::__normal_iterator.344", ptr %4, i32 0, i32 0
  store ptr %1, ptr %7, align 8
  store ptr %0, ptr %5, align 8
  store ptr %2, ptr %6, align 8
  %8 = load ptr, ptr %5, align 8
  %9 = call noundef nonnull align 8 dereferenceable(8) ptr @_ZNK9__gnu_cxx17__normal_iteratorIPPKN6Assimp3IFC10Schema_2x317IfcRepresentationESt6vectorIS6_SaIS6_EEEdeEv(ptr noundef nonnull align 8 dereferenceable(8) %4) #24
  %10 = load ptr, ptr %9, align 8
  %11 = load ptr, ptr %6, align 8
  %12 = load ptr, ptr %11, align 8
  %13 = call noundef zeroext i1 @_ZNK12_GLOBAL__N_127RateRepresentationPredicateclEPKN6Assimp3IFC10Schema_2x317IfcRepresentationES6_(ptr noundef nonnull align 1 dereferenceable(1) %8, ptr noundef %10, ptr noundef %12)
  ret i1 %13
}

; Function Attrs: mustprogress uwtable
define internal noundef zeroext i1 @_ZNK12_GLOBAL__N_127RateRepresentationPredicateclEPKN6Assimp3IFC10Schema_2x317IfcRepresentationES6_(ptr noundef nonnull align 1 dereferenceable(1) %0, ptr noundef %1, ptr noundef %2) #2 align 2 {
  %4 = alloca ptr, align 8
  %5 = alloca ptr, align 8
  %6 = alloca ptr, align 8
  store ptr %0, ptr %4, align 8
  store ptr %1, ptr %5, align 8
  store ptr %2, ptr %6, align 8
  %7 = load ptr, ptr %4, align 8
  %8 = load ptr, ptr %5, align 8
  %9 = call noundef i32 @_ZNK12_GLOBAL__N_127RateRepresentationPredicate4RateEPKN6Assimp3IFC10Schema_2x317IfcRepresentationE(ptr noundef nonnull align 1 dereferenceable(1) %7, ptr noundef %8)
  %10 = load ptr, ptr %6, align 8
  %11 = call noundef i32 @_ZNK12_GLOBAL__N_127RateRepresentationPredicate4RateEPKN6Assimp3IFC10Schema_2x317IfcRepresentationE(ptr noundef nonnull align 1 dereferenceable(1) %7, ptr noundef %10)
  %12 = icmp slt i32 %9, %11
  ret i1 %12
}

; Function Attrs: mustprogress nounwind uwtable
define linkonce_odr hidden void @_ZN9__gnu_cxx17__normal_iteratorIPPKN6Assimp3IFC10Schema_2x317IfcRepresentationESt6vectorIS6_SaIS6_EEEC2ERKS7_(ptr noundef nonnull align 8 dereferenceable(8) %0, ptr noundef nonnull align 8 dereferenceable(8) %1) unnamed_addr #1 comdat align 2 {
  %3 = alloca ptr, align 8
  %4 = alloca ptr, align 8
  store ptr %0, ptr %3, align 8
  store ptr %1, ptr %4, align 8
  %5 = load ptr, ptr %3, align 8
  %6 = getelementptr inbounds nuw %"class.__gnu_cxx::__normal_iterator.344", ptr %5, i32 0, i32 0
  %7 = load ptr, ptr %4, align 8
  %8 = load ptr, ptr %7, align 8
  store ptr %8, ptr %6, align 8
  ret void
}

; Function Attrs: mustprogress uwtable
define internal void @_ZSt11__push_heapIN9__gnu_cxx17__normal_iteratorIPPKN6Assimp3IFC10Schema_2x317IfcRepresentationESt6vectorIS7_SaIS7_EEEElS7_NS0_5__ops14_Iter_comp_valIN12_GLOBAL__N_127RateRepresentationPredicateEEEEvT_T0_SJ_T1_RT2_(ptr %0, i64 noundef %1, i64 noundef %2, ptr noundef %3, ptr noundef nonnull align 1 dereferenceable(1) %4) #2 {
  %6 = alloca %"class.__gnu_cxx::__normal_iterator.344", align 8
  %7 = alloca i64, align 8
  %8 = alloca i64, align 8
  %9 = alloca ptr, align 8
  %10 = alloca ptr, align 8
  %11 = alloca i64, align 8
  %12 = alloca %"class.__gnu_cxx::__normal_iterator.344", align 8
  %13 = alloca %"class.__gnu_cxx::__normal_iterator.344", align 8
  %14 = alloca %"class.__gnu_cxx::__normal_iterator.344", align 8
  %15 = alloca %"class.__gnu_cxx::__normal_iterator.344", align 8
  %16 = getelementptr inbounds nuw %"class.__gnu_cxx::__normal_iterator.344", ptr %6, i32 0, i32 0
  store ptr %0, ptr %16, align 8
  store i64 %1, ptr %7, align 8
  store i64 %2, ptr %8, align 8
  store ptr %3, ptr %9, align 8
  store ptr %4, ptr %10, align 8
  call void @llvm.lifetime.start.p0(i64 8, ptr %11) #24
  %17 = load i64, ptr %7, align 8
  %18 = sub nsw i64 %17, 1
  %19 = sdiv i64 %18, 2
  store i64 %19, ptr %11, align 8
  br label %20

20:                                               ; preds = %34, %5
  %21 = load i64, ptr %7, align 8
  %22 = load i64, ptr %8, align 8
  %23 = icmp sgt i64 %21, %22
  br i1 %23, label %24, label %32

24:                                               ; preds = %20
  %25 = load ptr, ptr %10, align 8
  %26 = load i64, ptr %11, align 8
  %27 = call ptr @_ZNK9__gnu_cxx17__normal_iteratorIPPKN6Assimp3IFC10Schema_2x317IfcRepresentationESt6vectorIS6_SaIS6_EEEplEl(ptr noundef nonnull align 8 dereferenceable(8) %6, i64 noundef %26) #24
  %28 = getelementptr inbounds nuw %"class.__gnu_cxx::__normal_iterator.344", ptr %12, i32 0, i32 0
  store ptr %27, ptr %28, align 8
  %29 = getelementptr inbounds nuw %"class.__gnu_cxx::__normal_iterator.344", ptr %12, i32 0, i32 0
  %30 = load ptr, ptr %29, align 8
  %31 = call noundef zeroext i1 @_ZN9__gnu_cxx5__ops14_Iter_comp_valIN12_GLOBAL__N_127RateRepresentationPredicateEEclINS_17__normal_iteratorIPPKN6Assimp3IFC10Schema_2x317IfcRepresentationESt6vectorISC_SaISC_EEEESC_EEbT_RT0_(ptr noundef nonnull align 1 dereferenceable(1) %25, ptr %30, ptr noundef nonnull align 8 dereferenceable(8) %9)
  br label %32

32:                                               ; preds = %24, %20
  %33 = phi i1 [ false, %20 ], [ %31, %24 ]
  br i1 %33, label %34, label %48

34:                                               ; preds = %32
  call void @llvm.lifetime.start.p0(i64 8, ptr %13) #24
  %35 = load i64, ptr %11, align 8
  %36 = call ptr @_ZNK9__gnu_cxx17__normal_iteratorIPPKN6Assimp3IFC10Schema_2x317IfcRepresentationESt6vectorIS6_SaIS6_EEEplEl(ptr noundef nonnull align 8 dereferenceable(8) %6, i64 noundef %35) #24
  %37 = getelementptr inbounds nuw %"class.__gnu_cxx::__normal_iterator.344", ptr %13, i32 0, i32 0
  store ptr %36, ptr %37, align 8
  %38 = call noundef nonnull align 8 dereferenceable(8) ptr @_ZNK9__gnu_cxx17__normal_iteratorIPPKN6Assimp3IFC10Schema_2x317IfcRepresentationESt6vectorIS6_SaIS6_EEEdeEv(ptr noundef nonnull align 8 dereferenceable(8) %13) #24
  %39 = load ptr, ptr %38, align 8
  call void @llvm.lifetime.start.p0(i64 8, ptr %14) #24
  %40 = load i64, ptr %7, align 8
  %41 = call ptr @_ZNK9__gnu_cxx17__normal_iteratorIPPKN6Assimp3IFC10Schema_2x317IfcRepresentationESt6vectorIS6_SaIS6_EEEplEl(ptr noundef nonnull align 8 dereferenceable(8) %6, i64 noundef %40) #24
  %42 = getelementptr inbounds nuw %"class.__gnu_cxx::__normal_iterator.344", ptr %14, i32 0, i32 0
  store ptr %41, ptr %42, align 8
  %43 = call noundef nonnull align 8 dereferenceable(8) ptr @_ZNK9__gnu_cxx17__normal_iteratorIPPKN6Assimp3IFC10Schema_2x317IfcRepresentationESt6vectorIS6_SaIS6_EEEdeEv(ptr noundef nonnull align 8 dereferenceable(8) %14) #24
  store ptr %39, ptr %43, align 8
  call void @llvm.lifetime.end.p0(i64 8, ptr %14) #24
  call void @llvm.lifetime.end.p0(i64 8, ptr %13) #24
  %44 = load i64, ptr %11, align 8
  store i64 %44, ptr %7, align 8
  %45 = load i64, ptr %7, align 8
  %46 = sub nsw i64 %45, 1
  %47 = sdiv i64 %46, 2
  store i64 %47, ptr %11, align 8
  br label %20, !llvm.loop !54

48:                                               ; preds = %32
  %49 = load ptr, ptr %9, align 8
  call void @llvm.lifetime.start.p0(i64 8, ptr %15) #24
  %50 = load i64, ptr %7, align 8
  %51 = call ptr @_ZNK9__gnu_cxx17__normal_iteratorIPPKN6Assimp3IFC10Schema_2x317IfcRepresentationESt6vectorIS6_SaIS6_EEEplEl(ptr noundef nonnull align 8 dereferenceable(8) %6, i64 noundef %50) #24
  %52 = getelementptr inbounds nuw %"class.__gnu_cxx::__normal_iterator.344", ptr %15, i32 0, i32 0
  store ptr %51, ptr %52, align 8
  %53 = call noundef nonnull align 8 dereferenceable(8) ptr @_ZNK9__gnu_cxx17__normal_iteratorIPPKN6Assimp3IFC10Schema_2x317IfcRepresentationESt6vectorIS6_SaIS6_EEEdeEv(ptr noundef nonnull align 8 dereferenceable(8) %15) #24
  store ptr %49, ptr %53, align 8
  call void @llvm.lifetime.end.p0(i64 8, ptr %15) #24
  call void @llvm.lifetime.end.p0(i64 8, ptr %11) #24
  ret void
}

; Function Attrs: mustprogress nounwind uwtable
define internal void @_ZN9__gnu_cxx5__ops14_Iter_comp_valIN12_GLOBAL__N_127RateRepresentationPredicateEEC2EONS0_15_Iter_comp_iterIS3_EE(ptr noundef nonnull align 1 dereferenceable(1) %0, ptr noundef nonnull align 1 dereferenceable(1) %1) unnamed_addr #1 align 2 {
  %3 = alloca ptr, align 8
  %4 = alloca ptr, align 8
  store ptr %0, ptr %3, align 8
  store ptr %1, ptr %4, align 8
  ret void
}

; Function Attrs: mustprogress nounwind uwtable
define linkonce_odr hidden noundef nonnull align 8 dereferenceable(8) ptr @_ZNK9__gnu_cxx17__normal_iteratorIPPKN6Assimp3IFC10Schema_2x317IfcRepresentationESt6vectorIS6_SaIS6_EEEdeEv(ptr noundef nonnull align 8 dereferenceable(8) %0) #1 comdat align 2 {
  %2 = alloca ptr, align 8
  store ptr %0, ptr %2, align 8
  %3 = load ptr, ptr %2, align 8
  %4 = getelementptr inbounds nuw %"class.__gnu_cxx::__normal_iterator.344", ptr %3, i32 0, i32 0
  %5 = load ptr, ptr %4, align 8
  ret ptr %5
}

; Function Attrs: mustprogress uwtable
define internal noundef zeroext i1 @_ZN9__gnu_cxx5__ops15_Iter_comp_iterIN12_GLOBAL__N_127RateRepresentationPredicateEEclINS_17__normal_iteratorIPPKN6Assimp3IFC10Schema_2x317IfcRepresentationESt6vectorISC_SaISC_EEEESH_EEbT_T0_(ptr noundef nonnull align 1 dereferenceable(1) %0, ptr %1, ptr %2) #2 align 2 {
  %4 = alloca %"class.__gnu_cxx::__normal_iterator.344", align 8
  %5 = alloca %"class.__gnu_cxx::__normal_iterator.344", align 8
  %6 = alloca ptr, align 8
  %7 = getelementptr inbounds nuw %"class.__gnu_cxx::__normal_iterator.344", ptr %4, i32 0, i32 0
  store ptr %1, ptr %7, align 8
  %8 = getelementptr inbounds nuw %"class.__gnu_cxx::__normal_iterator.344", ptr %5, i32 0, i32 0
  store ptr %2, ptr %8, align 8
  store ptr %0, ptr %6, align 8
  %9 = load ptr, ptr %6, align 8
  %10 = call noundef nonnull align 8 dereferenceable(8) ptr @_ZNK9__gnu_cxx17__normal_iteratorIPPKN6Assimp3IFC10Schema_2x317IfcRepresentationESt6vectorIS6_SaIS6_EEEdeEv(ptr noundef nonnull align 8 dereferenceable(8) %4) #24
  %11 = load ptr, ptr %10, align 8
  %12 = call noundef nonnull align 8 dereferenceable(8) ptr @_ZNK9__gnu_cxx17__normal_iteratorIPPKN6Assimp3IFC10Schema_2x317IfcRepresentationESt6vectorIS6_SaIS6_EEEdeEv(ptr noundef nonnull align 8 dereferenceable(8) %5) #24
  %13 = load ptr, ptr %12, align 8
  %14 = call noundef zeroext i1 @_ZNK12_GLOBAL__N_127RateRepresentationPredicateclEPKN6Assimp3IFC10Schema_2x317IfcRepresentationES6_(ptr noundef nonnull align 1 dereferenceable(1) %9, ptr noundef %11, ptr noundef %13)
  ret i1 %14
}

; Function Attrs: mustprogress nounwind uwtable
define linkonce_odr hidden ptr @_ZNK9__gnu_cxx17__normal_iteratorIPPKN6Assimp3IFC10Schema_2x317IfcRepresentationESt6vectorIS6_SaIS6_EEEplEl(ptr noundef nonnull align 8 dereferenceable(8) %0, i64 noundef %1) #1 comdat align 2 {
  %3 = alloca %"class.__gnu_cxx::__normal_iterator.344", align 8
  %4 = alloca ptr, align 8
  %5 = alloca i64, align 8
  %6 = alloca ptr, align 8
  store ptr %0, ptr %4, align 8
  store i64 %1, ptr %5, align 8
  %7 = load ptr, ptr %4, align 8
  call void @llvm.lifetime.start.p0(i64 8, ptr %6) #24
  %8 = getelementptr inbounds nuw %"class.__gnu_cxx::__normal_iterator.344", ptr %7, i32 0, i32 0
  %9 = load ptr, ptr %8, align 8
  %10 = load i64, ptr %5, align 8
  %11 = getelementptr inbounds ptr, ptr %9, i64 %10
  store ptr %11, ptr %6, align 8
  call void @_ZN9__gnu_cxx17__normal_iteratorIPPKN6Assimp3IFC10Schema_2x317IfcRepresentationESt6vectorIS6_SaIS6_EEEC2ERKS7_(ptr noundef nonnull align 8 dereferenceable(8) %3, ptr noundef nonnull align 8 dereferenceable(8) %6) #24
  call void @llvm.lifetime.end.p0(i64 8, ptr %6) #24
  %12 = getelementptr inbounds nuw %"class.__gnu_cxx::__normal_iterator.344", ptr %3, i32 0, i32 0
  %13 = load ptr, ptr %12, align 8
  ret ptr %13
}

; Function Attrs: mustprogress uwtable
define internal void @_ZSt13__adjust_heapIN9__gnu_cxx17__normal_iteratorIPPKN6Assimp3IFC10Schema_2x317IfcRepresentationESt6vectorIS7_SaIS7_EEEElS7_NS0_5__ops15_Iter_comp_iterIN12_GLOBAL__N_127RateRepresentationPredicateEEEEvT_T0_SJ_T1_T2_(ptr %0, i64 noundef %1, i64 noundef %2, ptr noundef %3) #2 {
  %5 = alloca %"class.__gnu_cxx::__normal_iterator.344", align 8
  %6 = alloca %"struct.__gnu_cxx::__ops::_Iter_comp_iter", align 1
  %7 = alloca i64, align 8
  %8 = alloca i64, align 8
  %9 = alloca ptr, align 8
  %10 = alloca i64, align 8
  %11 = alloca i64, align 8
  %12 = alloca %"class.__gnu_cxx::__normal_iterator.344", align 8
  %13 = alloca %"class.__gnu_cxx::__normal_iterator.344", align 8
  %14 = alloca %"class.__gnu_cxx::__normal_iterator.344", align 8
  %15 = alloca %"class.__gnu_cxx::__normal_iterator.344", align 8
  %16 = alloca %"class.__gnu_cxx::__normal_iterator.344", align 8
  %17 = alloca %"class.__gnu_cxx::__normal_iterator.344", align 8
  %18 = alloca %"struct.__gnu_cxx::__ops::_Iter_comp_val", align 1
  %19 = alloca %"class.__gnu_cxx::__normal_iterator.344", align 8
  %20 = getelementptr inbounds nuw %"class.__gnu_cxx::__normal_iterator.344", ptr %5, i32 0, i32 0
  store ptr %0, ptr %20, align 8
  store i64 %1, ptr %7, align 8
  store i64 %2, ptr %8, align 8
  store ptr %3, ptr %9, align 8
  call void @llvm.lifetime.start.p0(i64 8, ptr %10) #24
  %21 = load i64, ptr %7, align 8
  store i64 %21, ptr %10, align 8
  call void @llvm.lifetime.start.p0(i64 8, ptr %11) #24
  %22 = load i64, ptr %7, align 8
  store i64 %22, ptr %11, align 8
  br label %23

23:                                               ; preds = %48, %4
  %24 = load i64, ptr %11, align 8
  %25 = load i64, ptr %8, align 8
  %26 = sub nsw i64 %25, 1
  %27 = sdiv i64 %26, 2
  %28 = icmp slt i64 %24, %27
  br i1 %28, label %29, label %59

29:                                               ; preds = %23
  %30 = load i64, ptr %11, align 8
  %31 = add nsw i64 %30, 1
  %32 = mul nsw i64 2, %31
  store i64 %32, ptr %11, align 8
  %33 = load i64, ptr %11, align 8
  %34 = call ptr @_ZNK9__gnu_cxx17__normal_iteratorIPPKN6Assimp3IFC10Schema_2x317IfcRepresentationESt6vectorIS6_SaIS6_EEEplEl(ptr noundef nonnull align 8 dereferenceable(8) %5, i64 noundef %33) #24
  %35 = getelementptr inbounds nuw %"class.__gnu_cxx::__normal_iterator.344", ptr %12, i32 0, i32 0
  store ptr %34, ptr %35, align 8
  %36 = load i64, ptr %11, align 8
  %37 = sub nsw i64 %36, 1
  %38 = call ptr @_ZNK9__gnu_cxx17__normal_iteratorIPPKN6Assimp3IFC10Schema_2x317IfcRepresentationESt6vectorIS6_SaIS6_EEEplEl(ptr noundef nonnull align 8 dereferenceable(8) %5, i64 noundef %37) #24
  %39 = getelementptr inbounds nuw %"class.__gnu_cxx::__normal_iterator.344", ptr %13, i32 0, i32 0
  store ptr %38, ptr %39, align 8
  %40 = getelementptr inbounds nuw %"class.__gnu_cxx::__normal_iterator.344", ptr %12, i32 0, i32 0
  %41 = load ptr, ptr %40, align 8
  %42 = getelementptr inbounds nuw %"class.__gnu_cxx::__normal_iterator.344", ptr %13, i32 0, i32 0
  %43 = load ptr, ptr %42, align 8
  %44 = call noundef zeroext i1 @_ZN9__gnu_cxx5__ops15_Iter_comp_iterIN12_GLOBAL__N_127RateRepresentationPredicateEEclINS_17__normal_iteratorIPPKN6Assimp3IFC10Schema_2x317IfcRepresentationESt6vectorISC_SaISC_EEEESH_EEbT_T0_(ptr noundef nonnull align 1 dereferenceable(1) %6, ptr %41, ptr %43)
  br i1 %44, label %45, label %48

45:                                               ; preds = %29
  %46 = load i64, ptr %11, align 8
  %47 = add nsw i64 %46, -1
  store i64 %47, ptr %11, align 8
  br label %48

48:                                               ; preds = %45, %29
  call void @llvm.lifetime.start.p0(i64 8, ptr %14) #24
  %49 = load i64, ptr %11, align 8
  %50 = call ptr @_ZNK9__gnu_cxx17__normal_iteratorIPPKN6Assimp3IFC10Schema_2x317IfcRepresentationESt6vectorIS6_SaIS6_EEEplEl(ptr noundef nonnull align 8 dereferenceable(8) %5, i64 noundef %49) #24
  %51 = getelementptr inbounds nuw %"class.__gnu_cxx::__normal_iterator.344", ptr %14, i32 0, i32 0
  store ptr %50, ptr %51, align 8
  %52 = call noundef nonnull align 8 dereferenceable(8) ptr @_ZNK9__gnu_cxx17__normal_iteratorIPPKN6Assimp3IFC10Schema_2x317IfcRepresentationESt6vectorIS6_SaIS6_EEEdeEv(ptr noundef nonnull align 8 dereferenceable(8) %14) #24
  %53 = load ptr, ptr %52, align 8
  call void @llvm.lifetime.start.p0(i64 8, ptr %15) #24
  %54 = load i64, ptr %7, align 8
  %55 = call ptr @_ZNK9__gnu_cxx17__normal_iteratorIPPKN6Assimp3IFC10Schema_2x317IfcRepresentationESt6vectorIS6_SaIS6_EEEplEl(ptr noundef nonnull align 8 dereferenceable(8) %5, i64 noundef %54) #24
  %56 = getelementptr inbounds nuw %"class.__gnu_cxx::__normal_iterator.344", ptr %15, i32 0, i32 0
  store ptr %55, ptr %56, align 8
  %57 = call noundef nonnull align 8 dereferenceable(8) ptr @_ZNK9__gnu_cxx17__normal_iteratorIPPKN6Assimp3IFC10Schema_2x317IfcRepresentationESt6vectorIS6_SaIS6_EEEdeEv(ptr noundef nonnull align 8 dereferenceable(8) %15) #24
  store ptr %53, ptr %57, align 8
  call void @llvm.lifetime.end.p0(i64 8, ptr %15) #24
  call void @llvm.lifetime.end.p0(i64 8, ptr %14) #24
  %58 = load i64, ptr %11, align 8
  store i64 %58, ptr %7, align 8
  br label %23, !llvm.loop !53

59:                                               ; preds = %23
  %60 = load i64, ptr %8, align 8
  %61 = and i64 %60, 1
  %62 = icmp eq i64 %61, 0
  br i1 %62, label %63, label %85

63:                                               ; preds = %59
  %64 = load i64, ptr %11, align 8
  %65 = load i64, ptr %8, align 8
  %66 = sub nsw i64 %65, 2
  %67 = sdiv i64 %66, 2
  %68 = icmp eq i64 %64, %67
  br i1 %68, label %69, label %85

69:                                               ; preds = %63
  %70 = load i64, ptr %11, align 8
  %71 = add nsw i64 %70, 1
  %72 = mul nsw i64 2, %71
  store i64 %72, ptr %11, align 8
  call void @llvm.lifetime.start.p0(i64 8, ptr %16) #24
  %73 = load i64, ptr %11, align 8
  %74 = sub nsw i64 %73, 1
  %75 = call ptr @_ZNK9__gnu_cxx17__normal_iteratorIPPKN6Assimp3IFC10Schema_2x317IfcRepresentationESt6vectorIS6_SaIS6_EEEplEl(ptr noundef nonnull align 8 dereferenceable(8) %5, i64 noundef %74) #24
  %76 = getelementptr inbounds nuw %"class.__gnu_cxx::__normal_iterator.344", ptr %16, i32 0, i32 0
  store ptr %75, ptr %76, align 8
  %77 = call noundef nonnull align 8 dereferenceable(8) ptr @_ZNK9__gnu_cxx17__normal_iteratorIPPKN6Assimp3IFC10Schema_2x317IfcRepresentationESt6vectorIS6_SaIS6_EEEdeEv(ptr noundef nonnull align 8 dereferenceable(8) %16) #24
  %78 = load ptr, ptr %77, align 8
  call void @llvm.lifetime.start.p0(i64 8, ptr %17) #24
  %79 = load i64, ptr %7, align 8
  %80 = call ptr @_ZNK9__gnu_cxx17__normal_iteratorIPPKN6Assimp3IFC10Schema_2x317IfcRepresentationESt6vectorIS6_SaIS6_EEEplEl(ptr noundef nonnull align 8 dereferenceable(8) %5, i64 noundef %79) #24
  %81 = getelementptr inbounds nuw %"class.__gnu_cxx::__normal_iterator.344", ptr %17, i32 0, i32 0
  store ptr %80, ptr %81, align 8
  %82 = call noundef nonnull align 8 dereferenceable(8) ptr @_ZNK9__gnu_cxx17__normal_iteratorIPPKN6Assimp3IFC10Schema_2x317IfcRepresentationESt6vectorIS6_SaIS6_EEEdeEv(ptr noundef nonnull align 8 dereferenceable(8) %17) #24
  store ptr %78, ptr %82, align 8
  call void @llvm.lifetime.end.p0(i64 8, ptr %17) #24
  call void @llvm.lifetime.end.p0(i64 8, ptr %16) #24
  %83 = load i64, ptr %11, align 8
  %84 = sub nsw i64 %83, 1
  store i64 %84, ptr %7, align 8
  br label %85

85:                                               ; preds = %69, %63, %59
  call void @llvm.lifetime.start.p0(i64 1, ptr %18) #24
  call void @_ZN9__gnu_cxx5__ops14_Iter_comp_valIN12_GLOBAL__N_127RateRepresentationPredicateEEC2EONS0_15_Iter_comp_iterIS3_EE(ptr noundef nonnull align 1 dereferenceable(1) %18, ptr noundef nonnull align 1 dereferenceable(1) %6)
  call void @llvm.memcpy.p0.p0.i64(ptr align 8 %19, ptr align 8 %5, i64 8, i1 false)
  %86 = load i64, ptr %7, align 8
  %87 = load i64, ptr %10, align 8
  %88 = load ptr, ptr %9, align 8
  %89 = getelementptr inbounds nuw %"class.__gnu_cxx::__normal_iterator.344", ptr %19, i32 0, i32 0
  %90 = load ptr, ptr %89, align 8
  call void @_ZSt11__push_heapIN9__gnu_cxx17__normal_iteratorIPPKN6Assimp3IFC10Schema_2x317IfcRepresentationESt6vectorIS7_SaIS7_EEEElS7_NS0_5__ops14_Iter_comp_valIN12_GLOBAL__N_127RateRepresentationPredicateEEEEvT_T0_SJ_T1_RT2_(ptr %90, i64 noundef %86, i64 noundef %87, ptr noundef %88, ptr noundef nonnull align 1 dereferenceable(1) %18)
  call void @llvm.lifetime.end.p0(i64 1, ptr %18) #24
  call void @llvm.lifetime.end.p0(i64 8, ptr %11) #24
  call void @llvm.lifetime.end.p0(i64 8, ptr %10) #24
  ret void
}