; Function Attrs: mustprogress uwtable
define internal fastcc void @_ZSt13__adjust_heapIN9__gnu_cxx17__normal_iteratorIPPKN6Assimp3IFC10Schema_2x317IfcRepresentationESt6vectorIS7_SaIS7_EEEElS7_NS0_5__ops15_Iter_comp_iterIN12_GLOBAL__N_127RateRepresentationPredicateEEEEvT_T0_SJ_T1_T2_(ptr captures(none) %0, i64 noundef %1, i64 noundef %2, ptr noundef %3) unnamed_addr #1 {
  %5 = add nsw i64 %2, -1
  %6 = sdiv i64 %5, 2
  %7 = icmp slt i64 %1, %6
  br i1 %7, label %.lr.ph, label %._crit_edge

.lr.ph:                                           ; preds = %4, %.lr.ph
  %.034 = phi i64 [ %spec.select, %.lr.ph ], [ %1, %4 ]
  %8 = shl i64 %.034, 1
  %9 = add i64 %8, 2
  %10 = getelementptr inbounds ptr, ptr %0, i64 %9
  %11 = or disjoint i64 %8, 1
  %12 = getelementptr inbounds ptr, ptr %0, i64 %11
  %13 = load ptr, ptr %10, align 8
  %14 = load ptr, ptr %12, align 8
  %15 = tail call fastcc noundef i32 @_ZNK12_GLOBAL__N_127RateRepresentationPredicate4RateEPKN6Assimp3IFC10Schema_2x317IfcRepresentationE(ptr noundef %13)
  %16 = tail call fastcc noundef i32 @_ZNK12_GLOBAL__N_127RateRepresentationPredicate4RateEPKN6Assimp3IFC10Schema_2x317IfcRepresentationE(ptr noundef %14)
  %17 = icmp slt i32 %15, %16
  %spec.select = select i1 %17, i64 %11, i64 %9
  %18 = getelementptr inbounds ptr, ptr %0, i64 %spec.select
  %19 = load ptr, ptr %18, align 8
  %20 = getelementptr inbounds ptr, ptr %0, i64 %.034
  store ptr %19, ptr %20, align 8
  %21 = icmp slt i64 %spec.select, %6
  br i1 %21, label %.lr.ph, label %._crit_edge, !llvm.loop !312

._crit_edge:                                      ; preds = %.lr.ph, %4
  %.0.lcssa = phi i64 [ %1, %4 ], [ %spec.select, %.lr.ph ]
  %22 = and i64 %2, 1
  %23 = icmp eq i64 %22, 0
  br i1 %23, label %24, label %34

24:                                               ; preds = %._crit_edge
  %25 = add nsw i64 %2, -2
  %26 = ashr exact i64 %25, 1
  %27 = icmp eq i64 %.0.lcssa, %26
  br i1 %27, label %28, label %34

28:                                               ; preds = %24
  %29 = shl nsw i64 %.0.lcssa, 1
  %30 = or disjoint i64 %29, 1
  %31 = getelementptr inbounds ptr, ptr %0, i64 %30
  %32 = load ptr, ptr %31, align 8
  %33 = getelementptr inbounds ptr, ptr %0, i64 %.0.lcssa
  store ptr %32, ptr %33, align 8
  br label %34

34:                                               ; preds = %28, %24, %._crit_edge
  %.1 = phi i64 [ %30, %28 ], [ %.0.lcssa, %24 ], [ %.0.lcssa, %._crit_edge ]
  %35 = icmp sgt i64 %.1, %1
  br i1 %35, label %.lr.ph.i, label %_ZSt11__push_heapIN9__gnu_cxx17__normal_iteratorIPPKN6Assimp3IFC10Schema_2x317IfcRepresentationESt6vectorIS7_SaIS7_EEEElS7_NS0_5__ops14_Iter_comp_valIN12_GLOBAL__N_127RateRepresentationPredicateEEEEvT_T0_SJ_T1_RT2_.exit

.lr.ph.i:                                         ; preds = %34, %41
  %.010.i = phi i64 [ %.0911.i, %41 ], [ %.1, %34 ]
  %.0911.in.i = add nsw i64 %.010.i, -1
  %.0911.i = sdiv i64 %.0911.in.i, 2
  %36 = getelementptr inbounds ptr, ptr %0, i64 %.0911.i
  %37 = load ptr, ptr %36, align 8
  %38 = tail call fastcc noundef i32 @_ZNK12_GLOBAL__N_127RateRepresentationPredicate4RateEPKN6Assimp3IFC10Schema_2x317IfcRepresentationE(ptr noundef %37)
  %39 = tail call fastcc noundef i32 @_ZNK12_GLOBAL__N_127RateRepresentationPredicate4RateEPKN6Assimp3IFC10Schema_2x317IfcRepresentationE(ptr noundef %3)
  %40 = icmp slt i32 %38, %39
  br i1 %40, label %41, label %_ZSt11__push_heapIN9__gnu_cxx17__normal_iteratorIPPKN6Assimp3IFC10Schema_2x317IfcRepresentationESt6vectorIS7_SaIS7_EEEElS7_NS0_5__ops14_Iter_comp_valIN12_GLOBAL__N_127RateRepresentationPredicateEEEEvT_T0_SJ_T1_RT2_.exit

41:                                               ; preds = %.lr.ph.i
  %42 = load ptr, ptr %36, align 8
  %43 = getelementptr inbounds ptr, ptr %0, i64 %.010.i
  store ptr %42, ptr %43, align 8
  %44 = icmp sgt i64 %.0911.i, %1
  br i1 %44, label %.lr.ph.i, label %_ZSt11__push_heapIN9__gnu_cxx17__normal_iteratorIPPKN6Assimp3IFC10Schema_2x317IfcRepresentationESt6vectorIS7_SaIS7_EEEElS7_NS0_5__ops14_Iter_comp_valIN12_GLOBAL__N_127RateRepresentationPredicateEEEEvT_T0_SJ_T1_RT2_.exit, !llvm.loop !313

_ZSt11__push_heapIN9__gnu_cxx17__normal_iteratorIPPKN6Assimp3IFC10Schema_2x317IfcRepresentationESt6vectorIS7_SaIS7_EEEElS7_NS0_5__ops14_Iter_comp_valIN12_GLOBAL__N_127RateRepresentationPredicateEEEEvT_T0_SJ_T1_RT2_.exit: ; preds = %.lr.ph.i, %41, %34
  %.0.lcssa.i = phi i64 [ %.1, %34 ], [ %.010.i, %.lr.ph.i ], [ %.0911.i, %41 ]
  %45 = getelementptr inbounds ptr, ptr %0, i64 %.0.lcssa.i
  store ptr %3, ptr %45, align 8
  ret void
}